; Function Attrs: mustprogress nofree norecurse nosync nounwind willreturn memory(argmem: readwrite) uwtable
define i32 @ucfpos_getCategory_77(ptr noundef readonly %0, ptr noundef captures(none) %1) local_unnamed_addr #18 {
  %3 = load i32, ptr %1, align 4, !tbaa !13
  %4 = icmp slt i32 %3, 1
  br i1 %4, label %5, label %_ZN6icu_7713IcuCApiHelperI25UConstrainedFieldPositionNS_29UConstrainedFieldPositionImplELi1430472192EE8validateEPKS1_R10UErrorCode.exit.thread

5:                                                ; preds = %2
  %6 = icmp eq ptr %0, null
  br i1 %6, label %.sink.split.i, label %7

7:                                                ; preds = %5
  %8 = load i32, ptr %0, align 4, !tbaa !23
  %.not9.i = icmp eq i32 %8, 1430472192
  br i1 %.not9.i, label %_ZN6icu_7713IcuCApiHelperI25UConstrainedFieldPositionNS_29UConstrainedFieldPositionImplELi1430472192EE8validateEPKS1_R10UErrorCode.exit, label %.sink.split.i

.sink.split.i:                                    ; preds = %7, %5
  %.sink.i = phi i32 [ 1, %5 ], [ 3, %7 ]
  store i32 %.sink.i, ptr %1, align 4, !tbaa !13
  br label %_ZN6icu_7713IcuCApiHelperI25UConstrainedFieldPositionNS_29UConstrainedFieldPositionImplELi1430472192EE8validateEPKS1_R10UErrorCode.exit.thread

_ZN6icu_7713IcuCApiHelperI25UConstrainedFieldPositionNS_29UConstrainedFieldPositionImplELi1430472192EE8validateEPKS1_R10UErrorCode.exit: ; preds = %7
  %9 = getelementptr inbounds nuw i8, ptr %0, i64 28
  %10 = load i32, ptr %9, align 4, !tbaa !18
  br label %_ZN6icu_7713IcuCApiHelperI25UConstrainedFieldPositionNS_29UConstrainedFieldPositionImplELi1430472192EE8validateEPKS1_R10UErrorCode.exit.thread

_ZN6icu_7713IcuCApiHelperI25UConstrainedFieldPositionNS_29UConstrainedFieldPositionImplELi1430472192EE8validateEPKS1_R10UErrorCode.exit.thread: ; preds = %.sink.split.i, %2, %_ZN6icu_7713IcuCApiHelperI25UConstrainedFieldPositionNS_29UConstrainedFieldPositionImplELi1430472192EE8validateEPKS1_R10UErrorCode.exit
  %.0 = phi i32 [ %10, %_ZN6icu_7713IcuCApiHelperI25UConstrainedFieldPositionNS_29UConstrainedFieldPositionImplELi1430472192EE8validateEPKS1_R10UErrorCode.exit ], [ 0, %2 ], [ 0, %.sink.split.i ]
  ret i32 %.0
}